target datalayout = "e-m:e-p270:32:32-p271:32:32-p272:64:64-i64:64-i128:128-f80:128-n8:16:32:64-S128"
target triple = "x86_64-pc-linux-gnu"

%"struct.nanogui::Array.34" = type { [2 x i32] }
%"struct.nanogui::Matrix" = type { [3 x [3 x float]] }
%"class.std::__1::optional" = type { %"struct.std::__1::__optional_move_assign_base.base", [3 x i8] }
%"struct.std::__1::__optional_move_assign_base.base" = type { %"struct.std::__1::__optional_copy_assign_base.base" }
%"struct.std::__1::__optional_copy_assign_base.base" = type { %"struct.std::__1::__optional_move_base.base" }
%"struct.std::__1::__optional_move_base.base" = type { %"struct.std::__1::__optional_copy_base.base" }
%"struct.std::__1::__optional_copy_base.base" = type { %"struct.std::__1::__optional_storage_base.base" }
%"struct.std::__1::__optional_storage_base.base" = type { %"struct.std::__1::__optional_destruct_base.base" }
%"struct.std::__1::__optional_destruct_base.base" = type <{ %union.anon.36, i8 }>
%union.anon.36 = type { %"struct.tev::Box" }
%"struct.tev::Box" = type { %"struct.nanogui::Array.34", %"struct.nanogui::Array.34" }
%"struct.std::__1::__optional_destruct_base" = type <{ %union.anon.36, i8, [3 x i8] }>

; Function Attrs: mustprogress nounwind uwtable
define linkonce_odr hidden void @_ZNSt3__124__optional_destruct_baseIN3tev3BoxIiLj2EEELb1EEC2B8ne190000Ev(ptr noundef nonnull align 4 dereferenceable(17) %0) unnamed_addr #1 comdat align 2 {
  %2 = alloca ptr, align 8
  store ptr %0, ptr %2, align 8
  %3 = load ptr, ptr %2, align 8
  %4 = getelementptr inbounds %"struct.std::__1::__optional_destruct_base", ptr %3, i32 0, i32 0
  store i8 0, ptr %4, align 4
  %5 = getelementptr inbounds %"struct.std::__1::__optional_destruct_base", ptr %3, i32 0, i32 1
  store i8 0, ptr %5, align 4
  ret void
}

; Function Attrs: mustprogress nounwind uwtable
define linkonce_odr dso_local void @_ZNSt3__123__optional_storage_baseIN3tev3BoxIiLj2EEELb0EEC2Ev(ptr noundef nonnull align 4 dereferenceable(17) %0) unnamed_addr #1 comdat align 2 {
  %2 = alloca ptr, align 8
  store ptr %0, ptr %2, align 8
  %3 = load ptr, ptr %2, align 8
  call void @_ZNSt3__124__optional_destruct_baseIN3tev3BoxIiLj2EEELb1EEC2B8ne190000Ev(ptr noundef nonnull align 4 dereferenceable(17) %3) #14
  ret void
}

; Function Attrs: mustprogress nounwind uwtable
define linkonce_odr dso_local void @_ZNSt3__120__optional_copy_baseIN3tev3BoxIiLj2EEELb1EEC2Ev(ptr noundef nonnull align 4 dereferenceable(17) %0) unnamed_addr #1 comdat align 2 {
  %2 = alloca ptr, align 8
  store ptr %0, ptr %2, align 8
  %3 = load ptr, ptr %2, align 8
  call void @_ZNSt3__123__optional_storage_baseIN3tev3BoxIiLj2EEELb0EEC2Ev(ptr noundef nonnull align 4 dereferenceable(17) %3) #14
  ret void
}

; Function Attrs: mustprogress nounwind uwtable
define linkonce_odr dso_local void @_ZNSt3__120__optional_move_baseIN3tev3BoxIiLj2EEELb1EEC2Ev(ptr noundef nonnull align 4 dereferenceable(17) %0) unnamed_addr #1 comdat align 2 {
  %2 = alloca ptr, align 8
  store ptr %0, ptr %2, align 8
  %3 = load ptr, ptr %2, align 8
  call void @_ZNSt3__120__optional_copy_baseIN3tev3BoxIiLj2EEELb1EEC2Ev(ptr noundef nonnull align 4 dereferenceable(17) %3) #14
  ret void
}

; Function Attrs: mustprogress nounwind uwtable
define linkonce_odr dso_local void @_ZNSt3__127__optional_copy_assign_baseIN3tev3BoxIiLj2EEELb1EEC2Ev(ptr noundef nonnull align 4 dereferenceable(17) %0) unnamed_addr #1 comdat align 2 {
  %2 = alloca ptr, align 8
  store ptr %0, ptr %2, align 8
  %3 = load ptr, ptr %2, align 8
  call void @_ZNSt3__120__optional_move_baseIN3tev3BoxIiLj2EEELb1EEC2Ev(ptr noundef nonnull align 4 dereferenceable(17) %3) #14
  ret void
}

; Function Attrs: mustprogress nounwind uwtable
define linkonce_odr dso_local void @_ZNSt3__127__optional_move_assign_baseIN3tev3BoxIiLj2EEELb1EEC2Ev(ptr noundef nonnull align 4 dereferenceable(17) %0) unnamed_addr #1 comdat align 2 {
  %2 = alloca ptr, align 8
  store ptr %0, ptr %2, align 8
  %3 = load ptr, ptr %2, align 8
  call void @_ZNSt3__127__optional_copy_assign_baseIN3tev3BoxIiLj2EEELb1EEC2Ev(ptr noundef nonnull align 4 dereferenceable(17) %3) #14
  ret void
}

; Function Attrs: mustprogress uwtable
define dso_local void @_ZN3tev10UberShader4drawERKN7nanogui5ArrayIfLm2EEES5_PNS1_7TextureERKNS1_6MatrixIfLm3EEEfffbNS_8ETonemapERKNSt3__18optionalINS_3BoxIiLj2EEEEE(ptr noundef nonnull align 8 dereferenceable(40) %0, ptr noundef nonnull align 4 dereferenceable(8) %1, ptr noundef nonnull align 4 dereferenceable(8) %2, ptr noundef %3, ptr noundef nonnull align 4 dereferenceable(36) %4, float noundef %5, float noundef %6, float noundef %7, i1 noundef zeroext %8, i32 noundef %9, ptr noundef nonnull align 4 dereferenceable(17) %10) #4 align 2 {
  %12 = alloca ptr, align 8
  %13 = alloca ptr, align 8
  %14 = alloca ptr, align 8
  %15 = alloca ptr, align 8
  %16 = alloca ptr, align 8
  %17 = alloca float, align 4
  %18 = alloca float, align 4
  %19 = alloca float, align 4
  %20 = alloca i8, align 1
  %21 = alloca i32, align 4
  %22 = alloca ptr, align 8
  %23 = alloca %"struct.nanogui::Matrix", align 4
  store ptr %0, ptr %12, align 8
  store ptr %1, ptr %13, align 8
  store ptr %2, ptr %14, align 8
  store ptr %3, ptr %15, align 8
  store ptr %4, ptr %16, align 8
  store float %5, ptr %17, align 4
  store float %6, ptr %18, align 4
  store float %7, ptr %19, align 4
  %24 = zext i1 %8 to i8
  store i8 %24, ptr %20, align 1
  store i32 %9, ptr %21, align 4
  store ptr %10, ptr %22, align 8
  %25 = load ptr, ptr %12, align 8
  %26 = load ptr, ptr %13, align 8
  %27 = load ptr, ptr %14, align 8
  %28 = load ptr, ptr %15, align 8
  %29 = load ptr, ptr %16, align 8
  call void @_ZN7nanogui6MatrixIfLm3EEC2Ef(ptr noundef nonnull align 4 dereferenceable(36) %23, float noundef 0.000000e+00)
  %30 = load float, ptr %17, align 4
  %31 = load float, ptr %18, align 4
  %32 = load float, ptr %19, align 4
  %33 = load i8, ptr %20, align 1
  %34 = trunc i8 %33 to i1
  %35 = load i32, ptr %21, align 4
  %36 = load ptr, ptr %22, align 8
  call void @_ZN3tev10UberShader4drawERKN7nanogui5ArrayIfLm2EEES5_PNS1_7TextureERKNS1_6MatrixIfLm3EEES7_SB_fffbNS_8ETonemapENS_7EMetricERKNSt3__18optionalINS_3BoxIiLj2EEEEE(ptr noundef nonnull align 8 dereferenceable(40) %25, ptr noundef nonnull align 4 dereferenceable(8) %26, ptr noundef nonnull align 4 dereferenceable(8) %27, ptr noundef %28, ptr noundef nonnull align 4 dereferenceable(36) %29, ptr noundef null, ptr noundef nonnull align 4 dereferenceable(36) %23, float noundef %30, float noundef %31, float noundef %32, i1 noundef zeroext %34, i32 noundef %35, i32 noundef 0, ptr noundef nonnull align 4 dereferenceable(17) %36)
  ret void
}

; Function Attrs: mustprogress nounwind uwtable
define linkonce_odr hidden void @_ZNSt3__18optionalIN3tev3BoxIiLj2EEEEC2B8ne190000ENS_9nullopt_tE(ptr noundef nonnull align 4 dereferenceable(17) %0) unnamed_addr #1 comdat align 2 {
  %2 = alloca ptr, align 8
  store ptr %0, ptr %2, align 8
  %3 = load ptr, ptr %2, align 8
  call void @_ZNSt3__127__optional_move_assign_baseIN3tev3BoxIiLj2EEELb1EEC2Ev(ptr noundef nonnull align 4 dereferenceable(17) %3) #14
  ret void
}

; Function Attrs: mustprogress nounwind uwtable
define linkonce_odr dso_local void @_ZN7nanogui6MatrixIfLm3EEC2Ef(ptr noundef nonnull align 4 dereferenceable(36) %0, float noundef %1) unnamed_addr #1 comdat align 2 {
  %3 = alloca ptr, align 8
  %4 = alloca float, align 4
  %5 = alloca i64, align 8
  store ptr %0, ptr %3, align 8
  store float %1, ptr %4, align 4
  %6 = load ptr, ptr %3, align 8
  %7 = getelementptr inbounds %"struct.nanogui::Matrix", ptr %6, i32 0, i32 0
  %8 = getelementptr inbounds [3 x [3 x float]], ptr %7, i64 0, i64 0
  call void @llvm.memset.p0.i64(ptr align 4 %8, i8 0, i64 36, i1 false)
  store i64 0, ptr %5, align 8
  br label %9

9:                                                ; preds = %19, %2
  %10 = load i64, ptr %5, align 8
  %11 = icmp ult i64 %10, 3
  br i1 %11, label %12, label %22

12:                                               ; preds = %9
  %13 = load float, ptr %4, align 4
  %14 = getelementptr inbounds %"struct.nanogui::Matrix", ptr %6, i32 0, i32 0
  %15 = load i64, ptr %5, align 8
  %16 = getelementptr inbounds [3 x [3 x float]], ptr %14, i64 0, i64 %15
  %17 = load i64, ptr %5, align 8
  %18 = getelementptr inbounds [3 x float], ptr %16, i64 0, i64 %17
  store float %13, ptr %18, align 4
  br label %19

19:                                               ; preds = %12
  %20 = load i64, ptr %5, align 8
  %21 = add i64 %20, 1
  store i64 %21, ptr %5, align 8
  br label %9, !llvm.loop !8

22:                                               ; preds = %9
  ret void
}

; Function Attrs: mustprogress uwtable
define dso_local void @_ZN3tev10UberShader4drawERKN7nanogui5ArrayIfLm2EEES5_(ptr noundef nonnull align 8 dereferenceable(40) %0, ptr noundef nonnull align 4 dereferenceable(8) %1, ptr noundef nonnull align 4 dereferenceable(8) %2) #4 align 2 {
  %4 = alloca ptr, align 8
  %5 = alloca ptr, align 8
  %6 = alloca ptr, align 8
  %7 = alloca %"struct.nanogui::Matrix", align 4
  %8 = alloca %"class.std::__1::optional", align 4
  store ptr %0, ptr %4, align 8
  store ptr %1, ptr %5, align 8
  store ptr %2, ptr %6, align 8
  %9 = load ptr, ptr %4, align 8
  %10 = load ptr, ptr %5, align 8
  %11 = load ptr, ptr %6, align 8
  call void @_ZN7nanogui6MatrixIfLm3EEC2Ef(ptr noundef nonnull align 4 dereferenceable(36) %7, float noundef 0.000000e+00)
  call void @_ZNSt3__18optionalIN3tev3BoxIiLj2EEEEC2B8ne190000ENS_9nullopt_tE(ptr noundef nonnull align 4 dereferenceable(17) %8) #14
  call void @_ZN3tev10UberShader4drawERKN7nanogui5ArrayIfLm2EEES5_PNS1_7TextureERKNS1_6MatrixIfLm3EEEfffbNS_8ETonemapERKNSt3__18optionalINS_3BoxIiLj2EEEEE(ptr noundef nonnull align 8 dereferenceable(40) %9, ptr noundef nonnull align 4 dereferenceable(8) %10, ptr noundef nonnull align 4 dereferenceable(8) %11, ptr noundef null, ptr noundef nonnull align 4 dereferenceable(36) %7, float noundef 0.000000e+00, float noundef 0.000000e+00, float noundef 0.000000e+00, i1 noundef zeroext false, i32 noundef 0, ptr noundef nonnull align 4 dereferenceable(17) %8)
  ret void
}