; Function Attrs: mustprogress uwtable
define dso_local void @_ZN3tev10UberShader4drawERKN7nanogui5ArrayIfLm2EEES5_(ptr noundef nonnull align 8 dereferenceable(40) %0, ptr noundef nonnull align 4 dereferenceable(8) %1, ptr noundef nonnull align 4 dereferenceable(8) %2) local_unnamed_addr #7 align 2 {
  %4 = alloca %"struct.nanogui::Matrix", align 4
  %5 = alloca %"struct.nanogui::Matrix", align 4
  %6 = alloca %"class.std::__1::optional", align 4
  call void @llvm.memset.p0.i64(ptr noundef nonnull align 4 dereferenceable(36) %5, i8 0, i64 36, i1 false)
  br label %7

7:                                                ; preds = %7, %3
  %.05.i = phi i64 [ 0, %3 ], [ %9, %7 ]
  %8 = getelementptr inbounds [3 x [3 x float]], ptr %5, i64 0, i64 %.05.i, i64 %.05.i
  store float 0.000000e+00, ptr %8, align 4
  %9 = add nuw nsw i64 %.05.i, 1
  %exitcond.not.i = icmp eq i64 %9, 3
  br i1 %exitcond.not.i, label %_ZN7nanogui6MatrixIfLm3EEC2Ef.exit, label %7, !llvm.loop !28

_ZN7nanogui6MatrixIfLm3EEC2Ef.exit:               ; preds = %7
  store i8 0, ptr %6, align 4
  %10 = getelementptr inbounds i8, ptr %6, i64 16
  store i8 0, ptr %10, align 4
  call void @llvm.lifetime.start.p0(i64 36, ptr nonnull %4)
  call void @llvm.memset.p0.i64(ptr noundef nonnull align 4 dereferenceable(36) %4, i8 0, i64 36, i1 false)
  br label %11

11:                                               ; preds = %11, %_ZN7nanogui6MatrixIfLm3EEC2Ef.exit
  %.05.i.i = phi i64 [ 0, %_ZN7nanogui6MatrixIfLm3EEC2Ef.exit ], [ %13, %11 ]
  %12 = getelementptr inbounds [3 x [3 x float]], ptr %4, i64 0, i64 %.05.i.i, i64 %.05.i.i
  store float 0.000000e+00, ptr %12, align 4
  %13 = add nuw nsw i64 %.05.i.i, 1
  %exitcond.not.i.i = icmp eq i64 %13, 3
  br i1 %exitcond.not.i.i, label %_ZN3tev10UberShader4drawERKN7nanogui5ArrayIfLm2EEES5_PNS1_7TextureERKNS1_6MatrixIfLm3EEEfffbNS_8ETonemapERKNSt3__18optionalINS_3BoxIiLj2EEEEE.exit, label %11, !llvm.loop !28

_ZN3tev10UberShader4drawERKN7nanogui5ArrayIfLm2EEES5_PNS1_7TextureERKNS1_6MatrixIfLm3EEEfffbNS_8ETonemapERKNSt3__18optionalINS_3BoxIiLj2EEEEE.exit: ; preds = %11
  call void @_ZN3tev10UberShader4drawERKN7nanogui5ArrayIfLm2EEES5_PNS1_7TextureERKNS1_6MatrixIfLm3EEES7_SB_fffbNS_8ETonemapENS_7EMetricERKNSt3__18optionalINS_3BoxIiLj2EEEEE(ptr noundef nonnull align 8 dereferenceable(40) %0, ptr noundef nonnull align 4 dereferenceable(8) %1, ptr noundef nonnull align 4 dereferenceable(8) %2, ptr noundef null, ptr noundef nonnull align 4 dereferenceable(36) %5, ptr noundef null, ptr noundef nonnull align 4 dereferenceable(36) %4, float noundef 0.000000e+00, float noundef 0.000000e+00, float noundef 0.000000e+00, i1 noundef zeroext false, i32 noundef 0, i32 noundef 0, ptr noundef nonnull align 4 dereferenceable(17) %6)
  call void @llvm.lifetime.end.p0(i64 36, ptr nonnull %4)
  ret void
}